target datalayout = "e-m:e-p270:32:32-p271:32:32-p272:64:64-i64:64-i128:128-f80:128-n8:16:32:64-S128"
target triple = "x86_64-pc-linux-gnu"

%"class.llvm::StringRef" = type { ptr, i64 }
%"class.llvm::cl::Option" = type { ptr, i16, i16, i16, i16, %"class.llvm::StringRef", %"class.llvm::StringRef", %"class.llvm::StringRef", %"class.llvm::SmallVector", %"class.llvm::SmallPtrSet" }
%"class.llvm::SmallVector" = type { %"class.llvm::SmallVectorImpl", %"struct.llvm::SmallVectorStorage" }
%"class.llvm::SmallVectorImpl" = type { %"class.llvm::SmallVectorTemplateBase" }
%"class.llvm::SmallVectorTemplateBase" = type { %"class.llvm::SmallVectorTemplateCommon" }
%"class.llvm::SmallVectorTemplateCommon" = type { %"class.llvm::SmallVectorBase" }
%"class.llvm::SmallVectorBase" = type { ptr, i32, i32 }
%"struct.llvm::SmallVectorStorage" = type { [8 x i8] }
%"class.llvm::SmallPtrSet" = type { %"class.llvm::SmallPtrSetImpl.base", [1 x ptr] }
%"class.llvm::SmallPtrSetImpl.base" = type { %"class.llvm::SmallPtrSetImplBase.base" }
%"class.llvm::SmallPtrSetImplBase.base" = type <{ ptr, ptr, i32, i32, i32 }>

@_ZL13ArgHelpPrefix = internal global %"class.llvm::StringRef" { ptr @.str.76, i64 3 }, align 8
@_ZL7EqValue = internal global %"class.llvm::StringRef" { ptr @.str.78, i64 8 }, align 8
@_ZL11EmptyOption = internal global %"class.llvm::StringRef" { ptr @.str.79, i64 7 }, align 8
@_ZL12OptionPrefix = internal global %"class.llvm::StringRef" { ptr @.str.80, i64 5 }, align 8
@_ZL13ArgPrefixLong = internal global %"class.llvm::StringRef" { ptr @.str.75, i64 2 }, align 8
@_ZL9ArgPrefix = internal global %"class.llvm::StringRef" { ptr @.str.53, i64 1 }, align 8

; Function Attrs: mustprogress nounwind uwtable
define linkonce_odr hidden noundef i32 @_ZNK4llvm2cl6Option20getValueExpectedFlagEv(ptr noundef nonnull align 8 dereferenceable(128) %0) #0 comdat align 2 {
  %2 = alloca ptr, align 8
  store ptr %0, ptr %2, align 8
  %3 = load ptr, ptr %2, align 8
  %4 = getelementptr inbounds nuw %"class.llvm::cl::Option", ptr %3, i32 0, i32 2
  %5 = load i16, ptr %4, align 2
  %6 = lshr i16 %5, 3
  %7 = and i16 %6, 3
  %8 = icmp ne i16 %7, 0
  br i1 %8, label %9, label %15

9:                                                ; preds = %1
  %10 = getelementptr inbounds nuw %"class.llvm::cl::Option", ptr %3, i32 0, i32 2
  %11 = load i16, ptr %10, align 2
  %12 = lshr i16 %11, 3
  %13 = and i16 %12, 3
  %14 = zext i16 %13 to i32
  br label %20

15:                                               ; preds = %1
  %16 = load ptr, ptr %3, align 8
  %17 = getelementptr inbounds ptr, ptr %16, i64 1
  %18 = load ptr, ptr %17, align 8
  %19 = call noundef i32 %18(ptr noundef nonnull align 8 dereferenceable(128) %3)
  br label %20

20:                                               ; preds = %15, %9
  %21 = phi i32 [ %14, %9 ], [ %19, %15 ]
  ret i32 %21
}

; Function Attrs: mustprogress nounwind uwtable
define linkonce_odr noundef nonnull align 8 dereferenceable(8) ptr @_ZSt3maxImERKT_S2_S2_(ptr noundef nonnull align 8 dereferenceable(8) %0, ptr noundef nonnull align 8 dereferenceable(8) %1) #0 comdat {
  %3 = alloca ptr, align 8
  %4 = alloca ptr, align 8
  %5 = alloca ptr, align 8
  store ptr %0, ptr %4, align 8
  store ptr %1, ptr %5, align 8
  %6 = load ptr, ptr %4, align 8
  %7 = load i64, ptr %6, align 8
  %8 = load ptr, ptr %5, align 8
  %9 = load i64, ptr %8, align 8
  %10 = icmp ult i64 %7, %9
  br i1 %10, label %11, label %13

11:                                               ; preds = %2
  %12 = load ptr, ptr %5, align 8
  store ptr %12, ptr %3, align 8
  br label %15

13:                                               ; preds = %2
  %14 = load ptr, ptr %4, align 8
  store ptr %14, ptr %3, align 8
  br label %15

15:                                               ; preds = %13, %11
  %16 = load ptr, ptr %3, align 8
  ret ptr %16
}

; Function Attrs: mustprogress nounwind uwtable
define internal noundef i64 @_ZL21getOptionPrefixesSizev() #0 {
  %1 = call noundef i64 @_ZNK4llvm9StringRef4sizeEv(ptr noundef nonnull align 8 dereferenceable(16) @_ZL12OptionPrefix)
  %2 = call noundef i64 @_ZNK4llvm9StringRef4sizeEv(ptr noundef nonnull align 8 dereferenceable(16) @_ZL13ArgHelpPrefix)
  %3 = add i64 %1, %2
  ret i64 %3
}

; Function Attrs: mustprogress nounwind uwtable
define linkonce_odr hidden noundef zeroext i1 @_ZNK4llvm9StringRef5emptyEv(ptr noundef nonnull align 8 dereferenceable(16) %0) #0 comdat align 2 {
  %2 = alloca ptr, align 8
  store ptr %0, ptr %2, align 8
  %3 = load ptr, ptr %2, align 8
  %4 = getelementptr inbounds nuw %"class.llvm::StringRef", ptr %3, i32 0, i32 1
  %5 = load i64, ptr %4, align 8
  %6 = icmp eq i64 %5, 0
  ret i1 %6
}

; Function Attrs: mustprogress nounwind uwtable
define internal noundef zeroext i1 @_ZL17shouldPrintOptionN4llvm9StringRefES0_RKNS_2cl6OptionE(ptr %0, i64 %1, ptr %2, i64 %3, ptr noundef nonnull align 8 dereferenceable(128) %4) #0 {
  %6 = alloca %"class.llvm::StringRef", align 8
  %7 = alloca %"class.llvm::StringRef", align 8
  %8 = alloca ptr, align 8
  %9 = getelementptr inbounds nuw { ptr, i64 }, ptr %6, i32 0, i32 0
  store ptr %0, ptr %9, align 8
  %10 = getelementptr inbounds nuw { ptr, i64 }, ptr %6, i32 0, i32 1
  store i64 %1, ptr %10, align 8
  %11 = getelementptr inbounds nuw { ptr, i64 }, ptr %7, i32 0, i32 0
  store ptr %2, ptr %11, align 8
  %12 = getelementptr inbounds nuw { ptr, i64 }, ptr %7, i32 0, i32 1
  store i64 %3, ptr %12, align 8
  store ptr %4, ptr %8, align 8
  %13 = load ptr, ptr %8, align 8
  %14 = call noundef i32 @_ZNK4llvm2cl6Option20getValueExpectedFlagEv(ptr noundef nonnull align 8 dereferenceable(128) %13)
  %15 = icmp ne i32 %14, 1
  br i1 %15, label %21, label %16

16:                                               ; preds = %5
  %17 = call noundef zeroext i1 @_ZNK4llvm9StringRef5emptyEv(ptr noundef nonnull align 8 dereferenceable(16) %6)
  br i1 %17, label %18, label %21

18:                                               ; preds = %16
  %19 = call noundef zeroext i1 @_ZNK4llvm9StringRef5emptyEv(ptr noundef nonnull align 8 dereferenceable(16) %7)
  %20 = xor i1 %19, true
  br label %21

21:                                               ; preds = %18, %16, %5
  %22 = phi i1 [ true, %16 ], [ true, %5 ], [ %20, %18 ]
  ret i1 %22
}

; Function Attrs: mustprogress nounwind uwtable
define linkonce_odr hidden noundef i64 @_ZNK4llvm9StringRef4sizeEv(ptr noundef nonnull align 8 dereferenceable(16) %0) #0 comdat align 2 {
  %2 = alloca ptr, align 8
  store ptr %0, ptr %2, align 8
  %3 = load ptr, ptr %2, align 8
  %4 = getelementptr inbounds nuw %"class.llvm::StringRef", ptr %3, i32 0, i32 1
  %5 = load i64, ptr %4, align 8
  ret i64 %5
}

; Function Attrs: mustprogress nounwind uwtable
define internal noundef i64 @_ZL19argPlusPrefixesSizeN4llvm9StringRefEm(ptr %0, i64 %1, i64 noundef %2) #0 {
  %4 = alloca i64, align 8
  %5 = alloca %"class.llvm::StringRef", align 8
  %6 = alloca i64, align 8
  %7 = alloca i64, align 8
  %8 = getelementptr inbounds nuw { ptr, i64 }, ptr %5, i32 0, i32 0
  store ptr %0, ptr %8, align 8
  %9 = getelementptr inbounds nuw { ptr, i64 }, ptr %5, i32 0, i32 1
  store i64 %1, ptr %9, align 8
  store i64 %2, ptr %6, align 8
  %10 = call noundef i64 @_ZNK4llvm9StringRef4sizeEv(ptr noundef nonnull align 8 dereferenceable(16) %5)
  store i64 %10, ptr %7, align 8
  %11 = load i64, ptr %7, align 8
  %12 = icmp eq i64 %11, 1
  br i1 %12, label %13, label %21

13:                                               ; preds = %3
  %14 = load i64, ptr %7, align 8
  %15 = load i64, ptr %6, align 8
  %16 = add i64 %14, %15
  %17 = call noundef i64 @_ZNK4llvm9StringRef4sizeEv(ptr noundef nonnull align 8 dereferenceable(16) @_ZL9ArgPrefix)
  %18 = add i64 %16, %17
  %19 = call noundef i64 @_ZNK4llvm9StringRef4sizeEv(ptr noundef nonnull align 8 dereferenceable(16) @_ZL13ArgHelpPrefix)
  %20 = add i64 %18, %19
  store i64 %20, ptr %4, align 8
  br label %29

21:                                               ; preds = %3
  %22 = load i64, ptr %7, align 8
  %23 = load i64, ptr %6, align 8
  %24 = add i64 %22, %23
  %25 = call noundef i64 @_ZNK4llvm9StringRef4sizeEv(ptr noundef nonnull align 8 dereferenceable(16) @_ZL13ArgPrefixLong)
  %26 = add i64 %24, %25
  %27 = call noundef i64 @_ZNK4llvm9StringRef4sizeEv(ptr noundef nonnull align 8 dereferenceable(16) @_ZL13ArgHelpPrefix)
  %28 = add i64 %26, %27
  store i64 %28, ptr %4, align 8
  br label %29

29:                                               ; preds = %21, %13
  %30 = load i64, ptr %4, align 8
  ret i64 %30
}

; Function Attrs: mustprogress nounwind uwtable
define linkonce_odr hidden noundef zeroext i1 @_ZNK4llvm2cl6Option9hasArgStrEv(ptr noundef nonnull align 8 dereferenceable(128) %0) #0 comdat align 2 {
  %2 = alloca ptr, align 8
  store ptr %0, ptr %2, align 8
  %3 = load ptr, ptr %2, align 8
  %4 = getelementptr inbounds nuw %"class.llvm::cl::Option", ptr %3, i32 0, i32 5
  %5 = call noundef zeroext i1 @_ZNK4llvm9StringRef5emptyEv(ptr noundef nonnull align 8 dereferenceable(16) %4)
  %6 = xor i1 %5, true
  ret i1 %6
}

; Function Attrs: mustprogress nounwind uwtable
define dso_local noundef i64 @_ZNK4llvm2cl19generic_parser_base14getOptionWidthERKNS0_6OptionE(ptr noundef nonnull align 8 dereferenceable(16) %0, ptr noundef nonnull align 8 dereferenceable(128) %1) unnamed_addr #0 align 2 {
  %3 = alloca i64, align 8
  %4 = alloca ptr, align 8
  %5 = alloca ptr, align 8
  %6 = alloca i64, align 8
  %7 = alloca %"class.llvm::StringRef", align 8
  %8 = alloca i32, align 4
  %9 = alloca i32, align 4
  %10 = alloca %"class.llvm::StringRef", align 8
  %11 = alloca %"class.llvm::StringRef", align 8
  %12 = alloca %"class.llvm::StringRef", align 8
  %13 = alloca i64, align 8
  %14 = alloca i64, align 8
  %15 = alloca i64, align 8
  %16 = alloca i32, align 4
  %17 = alloca i32, align 4
  %18 = alloca i64, align 8
  %19 = alloca %"class.llvm::StringRef", align 8
  store ptr %0, ptr %4, align 8
  store ptr %1, ptr %5, align 8
  %20 = load ptr, ptr %4, align 8
  %21 = load ptr, ptr %5, align 8
  %22 = call noundef zeroext i1 @_ZNK4llvm2cl6Option9hasArgStrEv(ptr noundef nonnull align 8 dereferenceable(128) %21)
  br i1 %22, label %23, label %89

23:                                               ; preds = %2
  %24 = load ptr, ptr %5, align 8
  %25 = getelementptr inbounds nuw %"class.llvm::cl::Option", ptr %24, i32 0, i32 5
  call void @llvm.memcpy.p0.p0.i64(ptr align 8 %7, ptr align 8 %25, i64 16, i1 false)
  %26 = getelementptr inbounds nuw { ptr, i64 }, ptr %7, i32 0, i32 0
  %27 = load ptr, ptr %26, align 8
  %28 = getelementptr inbounds nuw { ptr, i64 }, ptr %7, i32 0, i32 1
  %29 = load i64, ptr %28, align 8
  %30 = call noundef i64 @_ZL19argPlusPrefixesSizeN4llvm9StringRefEm(ptr %27, i64 %29, i64 noundef 2)
  %31 = call noundef i64 @_ZNK4llvm9StringRef4sizeEv(ptr noundef nonnull align 8 dereferenceable(16) @_ZL7EqValue)
  %32 = add i64 %30, %31
  store i64 %32, ptr %6, align 8
  store i32 0, ptr %8, align 4
  %33 = load ptr, ptr %20, align 8
  %34 = getelementptr inbounds ptr, ptr %33, i64 2
  %35 = load ptr, ptr %34, align 8
  %36 = call noundef i32 %35(ptr noundef nonnull align 8 dereferenceable(16) %20)
  store i32 %36, ptr %9, align 4
  br label %37

37:                                               ; preds = %84, %23
  %38 = load i32, ptr %8, align 4
  %39 = load i32, ptr %9, align 4
  %40 = icmp ne i32 %38, %39
  br i1 %40, label %41, label %87

41:                                               ; preds = %37
  %42 = load i32, ptr %8, align 4
  %43 = load ptr, ptr %20, align 8
  %44 = getelementptr inbounds ptr, ptr %43, i64 3
  %45 = load ptr, ptr %44, align 8
  %46 = call { ptr, i64 } %45(ptr noundef nonnull align 8 dereferenceable(16) %20, i32 noundef %42)
  %47 = getelementptr inbounds nuw { ptr, i64 }, ptr %10, i32 0, i32 0
  %48 = extractvalue { ptr, i64 } %46, 0
  store ptr %48, ptr %47, align 8
  %49 = getelementptr inbounds nuw { ptr, i64 }, ptr %10, i32 0, i32 1
  %50 = extractvalue { ptr, i64 } %46, 1
  store i64 %50, ptr %49, align 8
  call void @llvm.memcpy.p0.p0.i64(ptr align 8 %11, ptr align 8 %10, i64 16, i1 false)
  %51 = load i32, ptr %8, align 4
  %52 = load ptr, ptr %20, align 8
  %53 = getelementptr inbounds ptr, ptr %52, i64 4
  %54 = load ptr, ptr %53, align 8
  %55 = call { ptr, i64 } %54(ptr noundef nonnull align 8 dereferenceable(16) %20, i32 noundef %51)
  %56 = getelementptr inbounds nuw { ptr, i64 }, ptr %12, i32 0, i32 0
  %57 = extractvalue { ptr, i64 } %55, 0
  store ptr %57, ptr %56, align 8
  %58 = getelementptr inbounds nuw { ptr, i64 }, ptr %12, i32 0, i32 1
  %59 = extractvalue { ptr, i64 } %55, 1
  store i64 %59, ptr %58, align 8
  %60 = load ptr, ptr %5, align 8
  %61 = getelementptr inbounds nuw { ptr, i64 }, ptr %11, i32 0, i32 0
  %62 = load ptr, ptr %61, align 8
  %63 = getelementptr inbounds nuw { ptr, i64 }, ptr %11, i32 0, i32 1
  %64 = load i64, ptr %63, align 8
  %65 = getelementptr inbounds nuw { ptr, i64 }, ptr %12, i32 0, i32 0
  %66 = load ptr, ptr %65, align 8
  %67 = getelementptr inbounds nuw { ptr, i64 }, ptr %12, i32 0, i32 1
  %68 = load i64, ptr %67, align 8
  %69 = call noundef zeroext i1 @_ZL17shouldPrintOptionN4llvm9StringRefES0_RKNS_2cl6OptionE(ptr %62, i64 %64, ptr %66, i64 %68, ptr noundef nonnull align 8 dereferenceable(128) %60)
  br i1 %69, label %71, label %70

70:                                               ; preds = %41
  br label %84

71:                                               ; preds = %41
  %72 = call noundef zeroext i1 @_ZNK4llvm9StringRef5emptyEv(ptr noundef nonnull align 8 dereferenceable(16) %10)
  br i1 %72, label %73, label %75

73:                                               ; preds = %71
  %74 = call noundef i64 @_ZNK4llvm9StringRef4sizeEv(ptr noundef nonnull align 8 dereferenceable(16) @_ZL11EmptyOption)
  br label %77

75:                                               ; preds = %71
  %76 = call noundef i64 @_ZNK4llvm9StringRef4sizeEv(ptr noundef nonnull align 8 dereferenceable(16) %10)
  br label %77

77:                                               ; preds = %75, %73
  %78 = phi i64 [ %74, %73 ], [ %76, %75 ]
  store i64 %78, ptr %13, align 8
  %79 = load i64, ptr %13, align 8
  %80 = call noundef i64 @_ZL21getOptionPrefixesSizev()
  %81 = add i64 %79, %80
  store i64 %81, ptr %14, align 8
  %82 = call noundef nonnull align 8 dereferenceable(8) ptr @_ZSt3maxImERKT_S2_S2_(ptr noundef nonnull align 8 dereferenceable(8) %6, ptr noundef nonnull align 8 dereferenceable(8) %14)
  %83 = load i64, ptr %82, align 8
  store i64 %83, ptr %6, align 8
  br label %84

84:                                               ; preds = %77, %70
  %85 = load i32, ptr %8, align 4
  %86 = add i32 %85, 1
  store i32 %86, ptr %8, align 4
  br label %37, !llvm.loop !32

87:                                               ; preds = %37
  %88 = load i64, ptr %6, align 8
  store i64 %88, ptr %3, align 8
  br label %117

89:                                               ; preds = %2
  store i64 0, ptr %15, align 8
  store i32 0, ptr %16, align 4
  %90 = load ptr, ptr %20, align 8
  %91 = getelementptr inbounds ptr, ptr %90, i64 2
  %92 = load ptr, ptr %91, align 8
  %93 = call noundef i32 %92(ptr noundef nonnull align 8 dereferenceable(16) %20)
  store i32 %93, ptr %17, align 4
  br label %94

94:                                               ; preds = %112, %89
  %95 = load i32, ptr %16, align 4
  %96 = load i32, ptr %17, align 4
  %97 = icmp ne i32 %95, %96
  br i1 %97, label %98, label %115

98:                                               ; preds = %94
  %99 = load i32, ptr %16, align 4
  %100 = load ptr, ptr %20, align 8
  %101 = getelementptr inbounds ptr, ptr %100, i64 3
  %102 = load ptr, ptr %101, align 8
  %103 = call { ptr, i64 } %102(ptr noundef nonnull align 8 dereferenceable(16) %20, i32 noundef %99)
  %104 = getelementptr inbounds nuw { ptr, i64 }, ptr %19, i32 0, i32 0
  %105 = extractvalue { ptr, i64 } %103, 0
  store ptr %105, ptr %104, align 8
  %106 = getelementptr inbounds nuw { ptr, i64 }, ptr %19, i32 0, i32 1
  %107 = extractvalue { ptr, i64 } %103, 1
  store i64 %107, ptr %106, align 8
  %108 = call noundef i64 @_ZNK4llvm9StringRef4sizeEv(ptr noundef nonnull align 8 dereferenceable(16) %19)
  %109 = add i64 %108, 8
  store i64 %109, ptr %18, align 8
  %110 = call noundef nonnull align 8 dereferenceable(8) ptr @_ZSt3maxImERKT_S2_S2_(ptr noundef nonnull align 8 dereferenceable(8) %15, ptr noundef nonnull align 8 dereferenceable(8) %18)
  %111 = load i64, ptr %110, align 8
  store i64 %111, ptr %15, align 8
  br label %112

112:                                              ; preds = %98
  %113 = load i32, ptr %16, align 4
  %114 = add i32 %113, 1
  store i32 %114, ptr %16, align 4
  br label %94, !llvm.loop !33

115:                                              ; preds = %94
  %116 = load i64, ptr %15, align 8
  store i64 %116, ptr %3, align 8
  br label %117

117:                                              ; preds = %115, %87
  %118 = load i64, ptr %3, align 8
  ret i64 %118
}