; Function Attrs: mustprogress nounwind uwtable
define dso_local noundef i64 @_ZNK4llvm2cl19generic_parser_base14getOptionWidthERKNS0_6OptionE(ptr noundef nonnull align 8 dereferenceable(16) %0, ptr noundef nonnull align 8 dereferenceable(128) %1) unnamed_addr #0 align 2 {
  %3 = getelementptr inbounds i8, ptr %1, i64 24
  %4 = load i64, ptr %3, align 8
  switch i64 %4, label %5 [
    i64 0, label %43
    i64 1, label %_ZL19argPlusPrefixesSizeN4llvm9StringRefEm.exit
  ]

5:                                                ; preds = %2
  %6 = add i64 %4, 15
  br label %_ZL19argPlusPrefixesSizeN4llvm9StringRefEm.exit

_ZL19argPlusPrefixesSizeN4llvm9StringRefEm.exit:  ; preds = %2, %5
  %.sink.i = phi i64 [ %6, %5 ], [ 15, %2 ]
  %7 = load ptr, ptr %0, align 8
  %8 = getelementptr inbounds i8, ptr %7, i64 16
  %9 = load ptr, ptr %8, align 8
  %10 = tail call noundef i32 %9(ptr noundef nonnull align 8 dereferenceable(16) %0) #25
  %.not2042 = icmp eq i32 %10, 0
  br i1 %.not2042, label %.loopexit, label %.lr.ph45

.lr.ph45:                                         ; preds = %_ZL19argPlusPrefixesSizeN4llvm9StringRefEm.exit
  %11 = getelementptr inbounds nuw i8, ptr %1, i64 10
  br label %12

12:                                               ; preds = %.lr.ph45, %41
  %.01944 = phi i32 [ 0, %.lr.ph45 ], [ %42, %41 ]
  %.043 = phi i64 [ %.sink.i, %.lr.ph45 ], [ %.1, %41 ]
  %13 = load ptr, ptr %0, align 8
  %14 = getelementptr inbounds i8, ptr %13, i64 24
  %15 = load ptr, ptr %14, align 8
  %16 = tail call { ptr, i64 } %15(ptr noundef nonnull align 8 dereferenceable(16) %0, i32 noundef %.01944) #25
  %17 = extractvalue { ptr, i64 } %16, 1
  %18 = load ptr, ptr %0, align 8
  %19 = getelementptr inbounds i8, ptr %18, i64 32
  %20 = load ptr, ptr %19, align 8
  %21 = tail call { ptr, i64 } %20(ptr noundef nonnull align 8 dereferenceable(16) %0, i32 noundef %.01944) #25
  %22 = extractvalue { ptr, i64 } %21, 1
  %23 = load i16, ptr %11, align 2
  %24 = lshr i16 %23, 3
  %25 = and i16 %24, 3
  %.not.i.i = icmp eq i16 %25, 0
  br i1 %.not.i.i, label %28, label %26

26:                                               ; preds = %12
  %27 = zext nneg i16 %25 to i32
  br label %_ZL17shouldPrintOptionN4llvm9StringRefES0_RKNS_2cl6OptionE.exit

28:                                               ; preds = %12
  %29 = load ptr, ptr %1, align 8
  %30 = getelementptr inbounds i8, ptr %29, i64 8
  %31 = load ptr, ptr %30, align 8
  %32 = tail call noundef i32 %31(ptr noundef nonnull align 8 dereferenceable(128) %1) #25
  br label %_ZL17shouldPrintOptionN4llvm9StringRefES0_RKNS_2cl6OptionE.exit

_ZL17shouldPrintOptionN4llvm9StringRefES0_RKNS_2cl6OptionE.exit: ; preds = %26, %28
  %33 = phi i32 [ %27, %26 ], [ %32, %28 ]
  %.not.i = icmp ne i32 %33, 1
  %34 = icmp ne i64 %17, 0
  %or.cond.not.i = select i1 %.not.i, i1 true, i1 %34
  %35 = icmp ne i64 %22, 0
  %36 = select i1 %or.cond.not.i, i1 true, i1 %35
  br i1 %36, label %37, label %41

37:                                               ; preds = %_ZL17shouldPrintOptionN4llvm9StringRefES0_RKNS_2cl6OptionE.exit
  %38 = icmp eq i64 %17, 0
  %39 = add i64 %17, 8
  %40 = select i1 %38, i64 15, i64 %39
  %.sroa.speculated27 = tail call i64 @llvm.umax.i64(i64 %.043, i64 %40)
  br label %41

41:                                               ; preds = %_ZL17shouldPrintOptionN4llvm9StringRefES0_RKNS_2cl6OptionE.exit, %37
  %.1 = phi i64 [ %.sroa.speculated27, %37 ], [ %.043, %_ZL17shouldPrintOptionN4llvm9StringRefES0_RKNS_2cl6OptionE.exit ]
  %42 = add nuw i32 %.01944, 1
  %.not20 = icmp eq i32 %42, %10
  br i1 %.not20, label %.loopexit, label %12, !llvm.loop !297

43:                                               ; preds = %2
  %44 = load ptr, ptr %0, align 8
  %45 = getelementptr inbounds i8, ptr %44, i64 16
  %46 = load ptr, ptr %45, align 8
  %47 = tail call noundef i32 %46(ptr noundef nonnull align 8 dereferenceable(16) %0) #25
  %.not39 = icmp eq i32 %47, 0
  br i1 %.not39, label %.loopexit, label %.lr.ph

.lr.ph:                                           ; preds = %43, %.lr.ph
  %.01841 = phi i32 [ %54, %.lr.ph ], [ 0, %43 ]
  %.03640 = phi i64 [ %.sroa.speculated, %.lr.ph ], [ 0, %43 ]
  %48 = load ptr, ptr %0, align 8
  %49 = getelementptr inbounds i8, ptr %48, i64 24
  %50 = load ptr, ptr %49, align 8
  %51 = tail call { ptr, i64 } %50(ptr noundef nonnull align 8 dereferenceable(16) %0, i32 noundef %.01841) #25
  %52 = extractvalue { ptr, i64 } %51, 1
  %53 = add i64 %52, 8
  %.sroa.speculated = tail call i64 @llvm.umax.i64(i64 %.03640, i64 %53)
  %54 = add nuw i32 %.01841, 1
  %.not = icmp eq i32 %54, %47
  br i1 %.not, label %.loopexit, label %.lr.ph, !llvm.loop !298

.loopexit:                                        ; preds = %.lr.ph, %41, %43, %_ZL19argPlusPrefixesSizeN4llvm9StringRefEm.exit
  %.0.in.sroa.speculated = phi i64 [ %.sink.i, %_ZL19argPlusPrefixesSizeN4llvm9StringRefEm.exit ], [ 0, %43 ], [ %.1, %41 ], [ %.sroa.speculated, %.lr.ph ]
  ret i64 %.0.in.sroa.speculated
}